; Function Attrs: mustprogress uwtable
define hidden void @_ZN2dd6solver12del_equationEPNS0_8equationE(ptr nocapture noundef nonnull readonly align 8 dereferenceable(208) %this, ptr noundef %eq) local_unnamed_addr #5 align 2 personality ptr @__gxx_personality_v0 {
entry:
  %0 = load i32, ptr %eq, align 8
  %1 = icmp ult i32 %0, 3
  br i1 %1, label %switch.lookup, label %sw.epilog.i.i.i

sw.epilog.i.i.i:                                  ; preds = %entry
  tail call void @_Z26notify_assertion_violationPKciS0_(ptr noundef nonnull @.str.7, i32 noundef 433, ptr noundef nonnull @.str.10)
  tail call void @exit(i32 noundef 114) #24
  unreachable

switch.lookup:                                    ; preds = %entry
  %2 = shl nuw nsw i32 %0, 3
  %3 = zext nneg i32 %2 to i64
  %4 = getelementptr i8, ptr %this, i64 %3
  %m_solved.i.i.i = getelementptr i8, ptr %4, i64 136
  %m_idx.i.i.i = getelementptr inbounds i8, ptr %eq, i64 4
  %5 = load i32, ptr %m_idx.i.i.i, align 4
  %6 = load ptr, ptr %m_solved.i.i.i, align 8
  %cmp.i.i.i = icmp eq ptr %6, null
  br i1 %cmp.i.i.i, label %_ZNK6vectorIPN2dd6solver8equationELb0EjE4sizeEv.exit.i.i, label %_ZNK6vectorIPN2dd6solver8equationELb0EjE4sizeEv.exit.thread.i.i

_ZNK6vectorIPN2dd6solver8equationELb0EjE4sizeEv.exit.i.i: ; preds = %switch.lookup
  %cmp.not.i.i = icmp ne i32 %5, -1
  tail call void @llvm.assume(i1 %cmp.not.i.i)
  br label %_ZN6vectorIPN2dd6solver8equationELb0EjE4backEv.exit.i.i

_ZNK6vectorIPN2dd6solver8equationELb0EjE4sizeEv.exit.thread.i.i: ; preds = %switch.lookup
  %arrayidx.i.i.i = getelementptr inbounds i8, ptr %6, i64 -4
  %7 = load i32, ptr %arrayidx.i.i.i, align 4
  %sub12.i.i = add i32 %7, -1
  %cmp.not13.i.i = icmp eq i32 %5, %sub12.i.i
  br i1 %cmp.not13.i.i, label %if.end.i.i, label %if.end.i.i.i.i

if.end.i.i.i.i:                                   ; preds = %_ZNK6vectorIPN2dd6solver8equationELb0EjE4sizeEv.exit.thread.i.i
  %8 = zext i32 %sub12.i.i to i64
  br label %_ZN6vectorIPN2dd6solver8equationELb0EjE4backEv.exit.i.i

_ZN6vectorIPN2dd6solver8equationELb0EjE4backEv.exit.i.i: ; preds = %if.end.i.i.i.i, %_ZNK6vectorIPN2dd6solver8equationELb0EjE4sizeEv.exit.i.i
  %retval.0.i.i.i.i = phi i64 [ %8, %if.end.i.i.i.i ], [ 4294967295, %_ZNK6vectorIPN2dd6solver8equationELb0EjE4sizeEv.exit.i.i ]
  %arrayidx.i1.i.i.i = getelementptr inbounds ptr, ptr %6, i64 %retval.0.i.i.i.i
  %9 = load ptr, ptr %arrayidx.i1.i.i.i, align 8
  %m_idx.i8.i.i = getelementptr inbounds i8, ptr %9, i64 4
  store i32 %5, ptr %m_idx.i8.i.i, align 4
  %10 = load ptr, ptr %m_solved.i.i.i, align 8
  %idxprom.i.i.i = zext i32 %5 to i64
  %arrayidx.i9.i.i = getelementptr inbounds ptr, ptr %10, i64 %idxprom.i.i.i
  store ptr %9, ptr %arrayidx.i9.i.i, align 8
  %.pre.i.i = load ptr, ptr %m_solved.i.i.i, align 8
  %arrayidx.i10.i.phi.trans.insert.i = getelementptr inbounds i8, ptr %.pre.i.i, i64 -4
  %.pre.i = load i32, ptr %arrayidx.i10.i.phi.trans.insert.i, align 4
  %.pre1.i = add i32 %.pre.i, -1
  br label %if.end.i.i

if.end.i.i:                                       ; preds = %_ZN6vectorIPN2dd6solver8equationELb0EjE4backEv.exit.i.i, %_ZNK6vectorIPN2dd6solver8equationELb0EjE4sizeEv.exit.thread.i.i
  %dec.i.i.pre-phi.i = phi i32 [ %5, %_ZNK6vectorIPN2dd6solver8equationELb0EjE4sizeEv.exit.thread.i.i ], [ %.pre1.i, %_ZN6vectorIPN2dd6solver8equationELb0EjE4backEv.exit.i.i ]
  %11 = phi ptr [ %6, %_ZNK6vectorIPN2dd6solver8equationELb0EjE4sizeEv.exit.thread.i.i ], [ %.pre.i.i, %_ZN6vectorIPN2dd6solver8equationELb0EjE4backEv.exit.i.i ]
  %arrayidx.i10.i.i = getelementptr inbounds i8, ptr %11, i64 -4
  store i32 %dec.i.i.pre-phi.i, ptr %arrayidx.i10.i.i, align 4
  %m_poly.i.i.i = getelementptr inbounds i8, ptr %eq, i64 8
  %m.i.i.i.i = getelementptr inbounds i8, ptr %eq, i64 16
  %12 = load ptr, ptr %m.i.i.i.i, align 8
  %13 = load i32, ptr %m_poly.i.i.i, align 8
  %14 = load ptr, ptr %12, align 8
  %idxprom.i.i.i.i.i.i = zext i32 %13 to i64
  %arrayidx.i.i.i.i.i.i = getelementptr inbounds %"struct.dd::pdd_manager::node", ptr %14, i64 %idxprom.i.i.i.i.i.i
  %bf.load.i.i.i.i.i = load i32, ptr %arrayidx.i.i.i.i.i.i, align 4
  %bf.clear.i.i.i.i.i = and i32 %bf.load.i.i.i.i.i, 1023
  %cmp.not.i.i.i.i.i = icmp eq i32 %bf.clear.i.i.i.i.i, 1023
  br i1 %cmp.not.i.i.i.i.i, label %_ZN2dd6solver6retireEPNS0_8equationE.exit, label %if.then.i.i.i.i.i

if.then.i.i.i.i.i:                                ; preds = %if.end.i.i
  %dec.i.i.i.i.i = add i32 %bf.load.i.i.i.i.i, 1023
  %bf.value.i.i.i.i.i = and i32 %dec.i.i.i.i.i, 1023
  %bf.clear7.i.i.i.i.i = and i32 %bf.load.i.i.i.i.i, -1024
  %bf.set.i.i.i.i.i = or disjoint i32 %bf.value.i.i.i.i.i, %bf.clear7.i.i.i.i.i
  store i32 %bf.set.i.i.i.i.i, ptr %arrayidx.i.i.i.i.i.i, align 4
  br label %_ZN2dd6solver6retireEPNS0_8equationE.exit

_ZN2dd6solver6retireEPNS0_8equationE.exit:        ; preds = %if.end.i.i, %if.then.i.i.i.i.i
  tail call void @_ZN6memory10deallocateEPv(ptr noundef nonnull %eq)
  ret void
}